; Function Attrs: mustprogress nounwind uwtable
define dso_local void @_ZN4llvm18MCAsmInfoMicrosoftC2Ev(ptr noundef nonnull align 8 dereferenceable(484) %0) unnamed_addr #1 align 2 {
  tail call void @_ZN4llvm9MCAsmInfoC2Ev(ptr noundef nonnull align 8 dereferenceable(484) %0) #5
  %2 = getelementptr inbounds nuw i8, ptr %0, i64 353
  store i8 0, ptr %2, align 1
  %3 = getelementptr inbounds nuw i8, ptr %0, i64 356
  store i32 1, ptr %3, align 4
  %4 = getelementptr inbounds nuw i8, ptr %0, i64 363
  store i8 0, ptr %4, align 1
  %5 = getelementptr inbounds nuw i8, ptr %0, i64 364
  store i8 1, ptr %5, align 4
  %6 = getelementptr inbounds nuw i8, ptr %0, i64 376
  store ptr @.str, ptr %6, align 8
  %7 = getelementptr inbounds nuw i8, ptr %0, i64 385
  store i8 1, ptr %7, align 1
  %8 = getelementptr inbounds nuw i8, ptr %0, i64 396
  store i32 0, ptr %8, align 4
  %9 = getelementptr inbounds nuw i8, ptr %0, i64 388
  store i32 0, ptr %9, align 4
  %10 = getelementptr inbounds nuw i8, ptr %0, i64 400
  store i32 0, ptr %10, align 8
  %11 = getelementptr inbounds nuw i8, ptr %0, i64 408
  store i8 1, ptr %11, align 8
  %12 = getelementptr inbounds nuw i8, ptr %0, i64 338
  store i8 1, ptr %12, align 2
  %13 = getelementptr inbounds nuw i8, ptr %0, i64 480
  store i8 0, ptr %13, align 8
  %14 = getelementptr inbounds nuw i8, ptr %0, i64 19
  store i8 1, ptr %14, align 1
  %15 = getelementptr inbounds nuw i8, ptr %0, i64 20
  store i8 1, ptr %15, align 4
  store ptr getelementptr inbounds inrange(-16, 104) (i8, ptr @_ZTVN4llvm18MCAsmInfoMicrosoftE, i64 16), ptr %0, align 8
  ret void
}